target datalayout = "e-m:e-p270:32:32-p271:32:32-p272:64:64-i64:64-i128:128-f80:128-n8:16:32:64-S128"
target triple = "x86_64-unknown-linux-gnu"

%"class.re2::Regexp" = type { i8, i8, i16, i16, i16, %union.anon, ptr, %union.anon.0 }
%union.anon = type { ptr }
%union.anon.0 = type { %struct.anon.1 }
%struct.anon.1 = type { i32, ptr }
%struct.anon.3 = type { ptr, ptr }
%"class.re2::CharClass" = type <{ i8, [3 x i8], i32, ptr, i32, [4 x i8] }>

; Function Attrs: mustprogress nounwind uwtable
define linkonce_odr noundef zeroext i1 @_ZN3re29CharClass4fullEv(ptr noundef nonnull align 8 dereferenceable(20) %this) #3 comdat align 2 {
entry:
  %this.addr = alloca ptr, align 8
  store ptr %this, ptr %this.addr, align 8
  %this1 = load ptr, ptr %this.addr, align 8
  %nrunes_ = getelementptr inbounds %"class.re2::CharClass", ptr %this1, i32 0, i32 2
  %0 = load i32, ptr %nrunes_, align 4
  %cmp = icmp eq i32 %0, 1114112
  ret i1 %cmp
}

; Function Attrs: mustprogress nounwind uwtable
define linkonce_odr noundef i32 @_ZN3re26Regexp11parse_flagsEv(ptr noundef nonnull align 8 dereferenceable(40) %this) #3 comdat align 2 {
entry:
  %this.addr = alloca ptr, align 8
  store ptr %this, ptr %this.addr, align 8
  %this1 = load ptr, ptr %this.addr, align 8
  %parse_flags_ = getelementptr inbounds %"class.re2::Regexp", ptr %this1, i32 0, i32 2
  %0 = load i16, ptr %parse_flags_, align 2
  %conv = zext i16 %0 to i32
  ret i32 %conv
}

; Function Attrs: mustprogress nounwind uwtable
define linkonce_odr noundef zeroext i1 @_ZN3re29CharClass5emptyEv(ptr noundef nonnull align 8 dereferenceable(20) %this) #3 comdat align 2 {
entry:
  %this.addr = alloca ptr, align 8
  store ptr %this, ptr %this.addr, align 8
  %this1 = load ptr, ptr %this.addr, align 8
  %nrunes_ = getelementptr inbounds %"class.re2::CharClass", ptr %this1, i32 0, i32 2
  %0 = load i32, ptr %nrunes_, align 4
  %cmp = icmp eq i32 %0, 0
  ret i1 %cmp
}

; Function Attrs: mustprogress nounwind uwtable
define linkonce_odr noundef ptr @_ZN3re26Regexp2ccEv(ptr noundef nonnull align 8 dereferenceable(40) %this) #3 comdat align 2 {
entry:
  %this.addr = alloca ptr, align 8
  store ptr %this, ptr %this.addr, align 8
  %this1 = load ptr, ptr %this.addr, align 8
  %0 = getelementptr inbounds %"class.re2::Regexp", ptr %this1, i32 0, i32 7
  %cc_ = getelementptr inbounds %struct.anon.3, ptr %0, i32 0, i32 0
  %1 = load ptr, ptr %cc_, align 8
  ret ptr %1
}

; Function Attrs: mustprogress uwtable
define noundef ptr @_ZN3re214SimplifyWalker17SimplifyCharClassEPNS_6RegexpE(ptr noundef %re) #0 align 2 personality ptr @__gxx_personality_v0 {
entry:
  %retval = alloca ptr, align 8
  %re.addr = alloca ptr, align 8
  %cc = alloca ptr, align 8
  %exn.slot = alloca ptr, align 8
  %ehselector.slot = alloca i32, align 4
  store ptr %re, ptr %re.addr, align 8
  %0 = load ptr, ptr %re.addr, align 8
  %call = call noundef ptr @_ZN3re26Regexp2ccEv(ptr noundef nonnull align 8 dereferenceable(40) %0)
  store ptr %call, ptr %cc, align 8
  %1 = load ptr, ptr %cc, align 8
  %call1 = call noundef zeroext i1 @_ZN3re29CharClass5emptyEv(ptr noundef nonnull align 8 dereferenceable(20) %1)
  br i1 %call1, label %if.then, label %if.end

if.then:                                          ; preds = %entry
  %call2 = call noalias noundef nonnull ptr @_Znwm(i64 noundef 40) #14
  %2 = load ptr, ptr %re.addr, align 8
  %call3 = invoke noundef i32 @_ZN3re26Regexp11parse_flagsEv(ptr noundef nonnull align 8 dereferenceable(40) %2)
          to label %invoke.cont unwind label %lpad

invoke.cont:                                      ; preds = %if.then
  invoke void @_ZN3re26RegexpC1ENS_8RegexpOpENS0_10ParseFlagsE(ptr noundef nonnull align 8 dereferenceable(40) %call2, i32 noundef 1, i32 noundef %call3)
          to label %invoke.cont4 unwind label %lpad

invoke.cont4:                                     ; preds = %invoke.cont
  store ptr %call2, ptr %retval, align 8
  br label %return

lpad:                                             ; preds = %invoke.cont, %if.then
  %3 = landingpad { ptr, i32 }
          cleanup
  %4 = extractvalue { ptr, i32 } %3, 0
  store ptr %4, ptr %exn.slot, align 8
  %5 = extractvalue { ptr, i32 } %3, 1
  store i32 %5, ptr %ehselector.slot, align 4
  call void @_ZdlPv(ptr noundef %call2) #15
  br label %eh.resume

if.end:                                           ; preds = %entry
  %6 = load ptr, ptr %cc, align 8
  %call5 = call noundef zeroext i1 @_ZN3re29CharClass4fullEv(ptr noundef nonnull align 8 dereferenceable(20) %6)
  br i1 %call5, label %if.then6, label %if.end12

if.then6:                                         ; preds = %if.end
  %call7 = call noalias noundef nonnull ptr @_Znwm(i64 noundef 40) #14
  %7 = load ptr, ptr %re.addr, align 8
  %call10 = invoke noundef i32 @_ZN3re26Regexp11parse_flagsEv(ptr noundef nonnull align 8 dereferenceable(40) %7)
          to label %invoke.cont9 unwind label %lpad8

invoke.cont9:                                     ; preds = %if.then6
  invoke void @_ZN3re26RegexpC1ENS_8RegexpOpENS0_10ParseFlagsE(ptr noundef nonnull align 8 dereferenceable(40) %call7, i32 noundef 12, i32 noundef %call10)
          to label %invoke.cont11 unwind label %lpad8

invoke.cont11:                                    ; preds = %invoke.cont9
  store ptr %call7, ptr %retval, align 8
  br label %return

lpad8:                                            ; preds = %invoke.cont9, %if.then6
  %8 = landingpad { ptr, i32 }
          cleanup
  %9 = extractvalue { ptr, i32 } %8, 0
  store ptr %9, ptr %exn.slot, align 8
  %10 = extractvalue { ptr, i32 } %8, 1
  store i32 %10, ptr %ehselector.slot, align 4
  call void @_ZdlPv(ptr noundef %call7) #15
  br label %eh.resume

if.end12:                                         ; preds = %if.end
  %11 = load ptr, ptr %re.addr, align 8
  %call13 = call noundef ptr @_ZN3re26Regexp6IncrefEv(ptr noundef nonnull align 8 dereferenceable(40) %11)
  store ptr %call13, ptr %retval, align 8
  br label %return

return:                                           ; preds = %if.end12, %invoke.cont11, %invoke.cont4
  %12 = load ptr, ptr %retval, align 8
  ret ptr %12

eh.resume:                                        ; preds = %lpad8, %lpad
  %exn = load ptr, ptr %exn.slot, align 8
  %sel = load i32, ptr %ehselector.slot, align 4
  %lpad.val = insertvalue { ptr, i32 } poison, ptr %exn, 0
  %lpad.val14 = insertvalue { ptr, i32 } %lpad.val, i32 %sel, 1
  resume { ptr, i32 } %lpad.val14
}