; Function Attrs: mustprogress uwtable
define noundef ptr @_ZN3re214SimplifyWalker17SimplifyCharClassEPNS_6RegexpE(ptr noundef %re) local_unnamed_addr #0 align 2 personality ptr @__gxx_personality_v0 {
entry:
  %0 = getelementptr inbounds i8, ptr %re, i64 24
  %1 = load ptr, ptr %0, align 8
  %nrunes_.i = getelementptr inbounds i8, ptr %1, i64 4
  %2 = load i32, ptr %nrunes_.i, align 4
  switch i32 %2, label %if.end12 [
    i32 0, label %if.then
    i32 1114112, label %if.then6
  ]

if.then:                                          ; preds = %entry
  %call2 = tail call noalias noundef nonnull dereferenceable(40) ptr @_Znwm(i64 noundef 40) #18
  %parse_flags_.i = getelementptr inbounds i8, ptr %re, i64 2
  %3 = load i16, ptr %parse_flags_.i, align 2
  %conv.i = zext i16 %3 to i32
  invoke void @_ZN3re26RegexpC1ENS_8RegexpOpENS0_10ParseFlagsE(ptr noundef nonnull align 8 dereferenceable(40) %call2, i32 noundef 1, i32 noundef %conv.i)
          to label %return unwind label %lpad

lpad:                                             ; preds = %if.then
  %4 = landingpad { ptr, i32 }
          cleanup
  br label %eh.resume

if.then6:                                         ; preds = %entry
  %call7 = tail call noalias noundef nonnull dereferenceable(40) ptr @_Znwm(i64 noundef 40) #18
  %parse_flags_.i8 = getelementptr inbounds i8, ptr %re, i64 2
  %5 = load i16, ptr %parse_flags_.i8, align 2
  %conv.i9 = zext i16 %5 to i32
  invoke void @_ZN3re26RegexpC1ENS_8RegexpOpENS0_10ParseFlagsE(ptr noundef nonnull align 8 dereferenceable(40) %call7, i32 noundef 12, i32 noundef %conv.i9)
          to label %return unwind label %lpad8

lpad8:                                            ; preds = %if.then6
  %6 = landingpad { ptr, i32 }
          cleanup
  br label %eh.resume

if.end12:                                         ; preds = %entry
  %call13 = tail call noundef ptr @_ZN3re26Regexp6IncrefEv(ptr noundef nonnull align 8 dereferenceable(40) %re)
  br label %return

return:                                           ; preds = %if.then6, %if.then, %if.end12
  %retval.0 = phi ptr [ %call13, %if.end12 ], [ %call2, %if.then ], [ %call7, %if.then6 ]
  ret ptr %retval.0

eh.resume:                                        ; preds = %lpad8, %lpad
  %call7.sink = phi ptr [ %call7, %lpad8 ], [ %call2, %lpad ]
  %.pn = phi { ptr, i32 } [ %6, %lpad8 ], [ %4, %lpad ]
  tail call void @_ZdlPv(ptr noundef nonnull %call7.sink) #15
  resume { ptr, i32 } %.pn
}